; ModuleID = 'bench/openblas/original/dtpmv_NLU.ll'
source_filename = "bench/openblas/original/dtpmv_NLU.ll"
target datalayout = "e-m:e-p270:32:32-p271:32:32-p272:64:64-i64:64-i128:128-f80:128-n8:16:32:64-S128"
target triple = "x86_64-pc-linux-gnu"

; Function Attrs: nounwind uwtable
define noundef i32 @dtpmv_NLU(i64 noundef %0, ptr noundef %1, ptr noundef %2, i64 noundef %3, ptr noundef %4) local_unnamed_addr #0 {
  %.not = icmp eq i64 %3, 1
  br i1 %.not, label %8, label %6

6:                                                ; preds = %5
  %7 = tail call i32 @dcopy_k(i64 noundef %0, ptr noundef %2, i64 noundef %3, ptr noundef %4, i64 noundef 1) #2
  br label %8

8:                                                ; preds = %6, %5
  %.0 = phi ptr [ %4, %6 ], [ %2, %5 ]
  %9 = icmp sgt i64 %0, 0
  br i1 %9, label %.lr.ph, label %._crit_edge

.lr.ph:                                           ; preds = %8
  %10 = add nuw nsw i64 %0, 1
  %11 = mul nuw nsw i64 %10, %0
  %12 = lshr i64 %11, 1
  %13 = getelementptr double, ptr %1, i64 %12
  %14 = getelementptr i8, ptr %13, i64 -8
  %15 = getelementptr double, ptr %.0, i64 %0
  br label %16

16:                                               ; preds = %.lr.ph, %25
  %.02835 = phi i64 [ 0, %.lr.ph ], [ %28, %25 ]
  %.02934 = phi ptr [ %14, %.lr.ph ], [ %27, %25 ]
  %.not33 = icmp eq i64 %.02835, 0
  br i1 %.not33, label %25, label %17

17:                                               ; preds = %16
  %18 = xor i64 %.02835, -1
  %19 = getelementptr double, ptr %15, i64 %18
  %20 = load double, ptr %19, align 8, !tbaa !3
  %21 = getelementptr inbounds nuw i8, ptr %.02934, i64 8
  %22 = sub nsw i64 0, %.02835
  %23 = getelementptr inbounds double, ptr %15, i64 %22
  %24 = tail call i32 @daxpy_k(i64 noundef %.02835, i64 noundef 0, i64 noundef 0, double noundef %20, ptr noundef nonnull %21, i64 noundef 1, ptr noundef nonnull %23, i64 noundef 1, ptr noundef null, i64 noundef 0) #2
  br label %25

25:                                               ; preds = %17, %16
  %26 = sub nuw nsw i64 -2, %.02835
  %27 = getelementptr inbounds double, ptr %.02934, i64 %26
  %28 = add nuw nsw i64 %.02835, 1
  %exitcond.not = icmp eq i64 %28, %0
  br i1 %exitcond.not, label %._crit_edge, label %16, !llvm.loop !7

._crit_edge:                                      ; preds = %25, %8
  br i1 %.not, label %31, label %29

29:                                               ; preds = %._crit_edge
  %30 = tail call i32 @dcopy_k(i64 noundef %0, ptr noundef %4, i64 noundef 1, ptr noundef %2, i64 noundef %3) #2
  br label %31

31:                                               ; preds = %29, %._crit_edge
  ret i32 0
}

declare i32 @dcopy_k(i64 noundef, ptr noundef, i64 noundef, ptr noundef, i64 noundef) local_unnamed_addr #1

declare i32 @daxpy_k(i64 noundef, i64 noundef, i64 noundef, double noundef, ptr noundef, i64 noundef, ptr noundef, i64 noundef, ptr noundef, i64 noundef) local_unnamed_addr #1


!llvm.module.flags = !{!0, !1, !2}

!0 = !{i32 1, !"wchar_size", i32 4}
!1 = !{i32 8, !"PIC Level", i32 2}
!2 = !{i32 7, !"uwtable", i32 2}
!3 = !{!4, !4, i64 0}
!4 = !{!"double", !5, i64 0}
!5 = !{!"omnipotent char", !6, i64 0}
!6 = !{!"Simple C/C++ TBAA"}
!7 = distinct !{!7, !8}
!8 = !{!"llvm.loop.mustprogress"}
